target datalayout = "e-m:e-p270:32:32-p271:32:32-p272:64:64-i64:64-i128:128-f80:128-n8:16:32:64-S128"
target triple = "x86_64-pc-linux-gnu"

%"class.lean::object_ref" = type { ptr }
%"class.lean::expr" = type { %"class.lean::object_ref" }
%"class.lean::type_checker" = type { i8, ptr, ptr, %"class.lean::local_ctx", i32, ptr }
%"class.lean::local_ctx" = type { %"class.lean::object_ref" }
%"class.lean::flet.47" = type { ptr, ptr }

; Function Attrs: mustprogress nounwind uwtable
define linkonce_odr hidden void @_ZN4lean4fletIPKNS_8list_refINS_4nameEEEED2Ev(ptr noundef nonnull align 8 dereferenceable(16) %0) unnamed_addr #2 comdat align 2 {
  %2 = alloca ptr, align 8
  store ptr %0, ptr %2, align 8, !tbaa !162
  %3 = load ptr, ptr %2, align 8
  %4 = getelementptr inbounds nuw %"class.lean::flet.47", ptr %3, i32 0, i32 1
  %5 = load ptr, ptr %4, align 8, !tbaa !166
  %6 = getelementptr inbounds nuw %"class.lean::flet.47", ptr %3, i32 0, i32 0
  %7 = load ptr, ptr %6, align 8, !tbaa !168
  store ptr %5, ptr %7, align 8, !tbaa !80
  ret void
}

; Function Attrs: mustprogress nounwind uwtable
define linkonce_odr hidden void @_ZN4lean4fletIPKNS_8list_refINS_4nameEEEEC2ERS5_RKS5_(ptr noundef nonnull align 8 dereferenceable(16) %0, ptr noundef nonnull align 8 dereferenceable(8) %1, ptr noundef nonnull align 8 dereferenceable(8) %2) unnamed_addr #2 comdat align 2 {
  %4 = alloca ptr, align 8
  %5 = alloca ptr, align 8
  %6 = alloca ptr, align 8
  store ptr %0, ptr %4, align 8, !tbaa !162
  store ptr %1, ptr %5, align 8, !tbaa !164
  store ptr %2, ptr %6, align 8, !tbaa !164
  %7 = load ptr, ptr %4, align 8
  %8 = getelementptr inbounds nuw %"class.lean::flet.47", ptr %7, i32 0, i32 0
  %9 = load ptr, ptr %5, align 8, !tbaa !164
  store ptr %9, ptr %8, align 8, !tbaa !164
  %10 = getelementptr inbounds nuw %"class.lean::flet.47", ptr %7, i32 0, i32 1
  %11 = load ptr, ptr %5, align 8, !tbaa !164
  %12 = load ptr, ptr %11, align 8, !tbaa !80
  store ptr %12, ptr %10, align 8, !tbaa !166
  %13 = load ptr, ptr %6, align 8, !tbaa !164
  %14 = load ptr, ptr %13, align 8, !tbaa !80
  %15 = getelementptr inbounds nuw %"class.lean::flet.47", ptr %7, i32 0, i32 0
  %16 = load ptr, ptr %15, align 8, !tbaa !168
  store ptr %14, ptr %16, align 8, !tbaa !80
  ret void
}

; Function Attrs: mustprogress uwtable
define hidden void @_ZN4lean12type_checker5checkERKNS_4exprERKNS_8list_refINS_4nameEEE(ptr dead_on_unwind noalias writable sret(%"class.lean::expr") align 8 %0, ptr noundef nonnull align 8 dereferenceable(48) %1, ptr noundef nonnull align 8 dereferenceable(8) %2, ptr noundef nonnull align 8 dereferenceable(8) %3) #0 align 2 personality ptr @__gxx_personality_v0 {
  %5 = alloca ptr, align 8
  %6 = alloca ptr, align 8
  %7 = alloca ptr, align 8
  %8 = alloca ptr, align 8
  %9 = alloca %"class.lean::flet.47", align 8
  %10 = alloca ptr, align 8
  %11 = alloca ptr, align 8
  %12 = alloca i32, align 4
  store ptr %0, ptr %5, align 8
  store ptr %1, ptr %6, align 8, !tbaa !37
  store ptr %2, ptr %7, align 8, !tbaa !39
  store ptr %3, ptr %8, align 8, !tbaa !80
  %13 = load ptr, ptr %6, align 8
  call void @llvm.lifetime.start.p0(i64 16, ptr %9) #16
  %14 = getelementptr inbounds nuw %"class.lean::type_checker", ptr %13, i32 0, i32 5
  call void @llvm.lifetime.start.p0(i64 8, ptr %10) #16
  %15 = load ptr, ptr %8, align 8, !tbaa !80
  store ptr %15, ptr %10, align 8, !tbaa !80
  call void @_ZN4lean4fletIPKNS_8list_refINS_4nameEEEEC2ERS5_RKS5_(ptr noundef nonnull align 8 dereferenceable(16) %9, ptr noundef nonnull align 8 dereferenceable(8) %14, ptr noundef nonnull align 8 dereferenceable(8) %10)
  call void @llvm.lifetime.end.p0(i64 8, ptr %10) #16
  %16 = load ptr, ptr %7, align 8, !tbaa !39
  invoke void @_ZN4lean12type_checker15infer_type_coreERKNS_4exprEb(ptr dead_on_unwind writable sret(%"class.lean::expr") align 8 %0, ptr noundef nonnull align 8 dereferenceable(48) %13, ptr noundef nonnull align 8 dereferenceable(8) %16, i1 noundef zeroext false)
          to label %17 unwind label %18

17:                                               ; preds = %4
  call void @_ZN4lean4fletIPKNS_8list_refINS_4nameEEEED2Ev(ptr noundef nonnull align 8 dereferenceable(16) %9) #16
  call void @llvm.lifetime.end.p0(i64 16, ptr %9) #16
  ret void

18:                                               ; preds = %4
  %19 = landingpad { ptr, i32 }
          cleanup
  %20 = extractvalue { ptr, i32 } %19, 0
  store ptr %20, ptr %11, align 8
  %21 = extractvalue { ptr, i32 } %19, 1
  store i32 %21, ptr %12, align 4
  call void @_ZN4lean4fletIPKNS_8list_refINS_4nameEEEED2Ev(ptr noundef nonnull align 8 dereferenceable(16) %9) #16
  call void @llvm.lifetime.end.p0(i64 16, ptr %9) #16
  br label %22

22:                                               ; preds = %18
  %23 = load ptr, ptr %11, align 8
  %24 = load i32, ptr %12, align 4
  %25 = insertvalue { ptr, i32 } poison, ptr %23, 0
  %26 = insertvalue { ptr, i32 } %25, i32 %24, 1
  resume { ptr, i32 } %26
}