; Function Attrs: mustprogress uwtable
define hidden void @_ZN4lean12type_checker5checkERKNS_4exprERKNS_8list_refINS_4nameEEE(ptr dead_on_unwind noalias writable sret(%"class.lean::expr") align 8 %0, ptr noundef nonnull align 8 dereferenceable(48) %1, ptr noundef nonnull align 8 dereferenceable(8) %2, ptr noundef nonnull align 8 dereferenceable(8) %3) local_unnamed_addr #0 align 2 personality ptr @__gxx_personality_v0 {
  %5 = getelementptr inbounds nuw i8, ptr %1, i64 40
  %6 = load ptr, ptr %5, align 8, !tbaa !156
  store ptr %3, ptr %5, align 8, !tbaa !156
  invoke void @_ZN4lean12type_checker15infer_type_coreERKNS_4exprEb(ptr dead_on_unwind writable sret(%"class.lean::expr") align 8 %0, ptr noundef nonnull align 8 dereferenceable(48) %1, ptr noundef nonnull align 8 dereferenceable(8) %2, i1 noundef zeroext false)
          to label %7 unwind label %8

7:                                                ; preds = %4
  store ptr %6, ptr %5, align 8, !tbaa !156
  ret void

8:                                                ; preds = %4
  %9 = landingpad { ptr, i32 }
          cleanup
  store ptr %6, ptr %5, align 8, !tbaa !156
  resume { ptr, i32 } %9
}